target datalayout = "e-m:e-p270:32:32-p271:32:32-p272:64:64-i64:64-i128:128-f80:128-n8:16:32:64-S128"
target triple = "x86_64-pc-linux-gnu"

%struct.expert_field = type { i32, i32 }
%struct._packet_info = type { ptr, ptr, i32, i32, %struct.nstime_t, %struct.nstime_t, %struct.nstime_t, i8, ptr, ptr, ptr, ptr, %struct._address, %struct._address, %struct._address, %struct._address, %struct._address, %struct._address, i32, ptr, i8, [3 x i8], %struct.anon, i32, i32, i32, i32, ptr, i8, ptr, ptr, i16, i16, i32, i32, i16, i32, i32, ptr, ptr, ptr, i8, i8, i16, i16, i16, i32, i16, i16, ptr, ptr, ptr, ptr, ptr, i32, i32 }
%struct.nstime_t = type { i64, i32 }
%struct._address = type { i32, i32, ptr, ptr }
%struct.anon = type { i8, [3 x i8] }
%struct._control_proc_info_t = type { [5 x i32], i8, i32, i32, i16 }
%struct._proto_node = type { ptr, ptr, ptr, ptr, ptr, ptr, ptr }
%struct.field_info = type { ptr, i32, i32, i32, i32, i32, i32, ptr, ptr, ptr, i32, i32 }

@hf_request_in_frame = internal global i32 0, align 4
@ei_control_proc_invalid_conflict_resolution = internal global %struct.expert_field zeroinitializer, align 4

; Function Attrs: nounwind null_pointer_is_valid sspstrong uwtable
define internal zeroext i1 @control_proc_contains_instant(i8 noundef zeroext %0) #3 {
  %2 = alloca i1, align 1
  %3 = alloca i8, align 1
  store i8 %0, ptr %3, align 1
  %4 = load i8, ptr %3, align 1
  %5 = zext i8 %4 to i32
  switch i32 %5, label %7 [
    i32 0, label %6
    i32 1, label %6
    i32 15, label %6
    i32 22, label %6
  ]

6:                                                ; preds = %1, %1, %1, %1
  store i1 true, ptr %2, align 1
  br label %8

7:                                                ; preds = %1
  store i1 false, ptr %2, align 1
  br label %8

8:                                                ; preds = %7, %6
  %9 = load i1, ptr %2, align 1
  ret i1 %9
}

; Function Attrs: nounwind null_pointer_is_valid sspstrong uwtable
define internal zeroext i1 @control_proc_is_complete(i32 noundef %0, ptr noundef %1) #3 {
  %3 = alloca i1, align 1
  %4 = alloca i32, align 4
  %5 = alloca ptr, align 8
  store i32 %0, ptr %4, align 4
  store ptr %1, ptr %5, align 8
  %6 = load ptr, ptr %5, align 8
  %7 = getelementptr inbounds nuw %struct._control_proc_info_t, ptr %6, i32 0, i32 2
  %8 = load i32, ptr %7, align 4
  %9 = icmp ne i32 %8, 0
  br i1 %9, label %10, label %17

10:                                               ; preds = %2
  %11 = load i32, ptr %4, align 4
  %12 = load ptr, ptr %5, align 8
  %13 = getelementptr inbounds nuw %struct._control_proc_info_t, ptr %12, i32 0, i32 2
  %14 = load i32, ptr %13, align 4
  %15 = icmp ugt i32 %11, %14
  br i1 %15, label %16, label %17

16:                                               ; preds = %10
  store i1 true, ptr %3, align 1
  br label %18

17:                                               ; preds = %10, %2
  store i1 false, ptr %3, align 1
  br label %18

18:                                               ; preds = %17, %16
  %19 = load i1, ptr %3, align 1
  ret i1 %19
}

; Function Attrs: inlinehint nounwind null_pointer_is_valid sspstrong uwtable
define internal void @proto_item_set_generated(ptr noundef %0) #5 {
  %2 = alloca ptr, align 8
  store ptr %0, ptr %2, align 8
  %3 = load ptr, ptr %2, align 8
  %4 = icmp ne ptr %3, null
  br i1 %4, label %5, label %24

5:                                                ; preds = %1
  br label %6

6:                                                ; preds = %5
  %7 = load ptr, ptr %2, align 8
  %8 = getelementptr inbounds nuw %struct._proto_node, ptr %7, i32 0, i32 5
  %9 = load ptr, ptr %8, align 8
  %10 = icmp ne ptr %9, null
  br i1 %10, label %11, label %22

11:                                               ; preds = %6
  %12 = load ptr, ptr %2, align 8
  %13 = getelementptr inbounds nuw %struct._proto_node, ptr %12, i32 0, i32 5
  %14 = load ptr, ptr %13, align 8
  %15 = getelementptr inbounds nuw %struct.field_info, ptr %14, i32 0, i32 6
  %16 = load i32, ptr %15, align 4
  %17 = or i32 %16, 2
  %18 = load ptr, ptr %2, align 8
  %19 = getelementptr inbounds nuw %struct._proto_node, ptr %18, i32 0, i32 5
  %20 = load ptr, ptr %19, align 8
  %21 = getelementptr inbounds nuw %struct.field_info, ptr %20, i32 0, i32 6
  store i32 %17, ptr %21, align 4
  br label %22

22:                                               ; preds = %11, %6
  br label %23

23:                                               ; preds = %22
  br label %24

24:                                               ; preds = %23, %1
  ret void
}

; Function Attrs: null_pointer_is_valid sspstrong uwtable
define internal void @control_proc_add_frame(ptr noundef %0, ptr noundef %1, ptr noundef %2, i8 noundef zeroext %3, i32 noundef %4, ptr noundef %5, ptr noundef %6, i32 noundef %7) #0 {
  %9 = alloca ptr, align 8
  %10 = alloca ptr, align 8
  %11 = alloca ptr, align 8
  %12 = alloca i8, align 1
  %13 = alloca i32, align 4
  %14 = alloca ptr, align 8
  %15 = alloca ptr, align 8
  %16 = alloca i32, align 4
  %17 = alloca ptr, align 8
  store ptr %0, ptr %9, align 8
  store ptr %1, ptr %10, align 8
  store ptr %2, ptr %11, align 8
  store i8 %3, ptr %12, align 1
  store i32 %4, ptr %13, align 4
  store ptr %5, ptr %14, align 8
  store ptr %6, ptr %15, align 8
  store i32 %7, ptr %16, align 4
  call void @llvm.lifetime.start.p0(i64 8, ptr %17) #13
  %18 = load ptr, ptr %10, align 8
  %19 = getelementptr inbounds nuw %struct._packet_info, ptr %18, i32 0, i32 3
  %20 = load i32, ptr %19, align 4
  %21 = load ptr, ptr %14, align 8
  %22 = getelementptr inbounds nuw %struct._control_proc_info_t, ptr %21, i32 0, i32 0
  %23 = load i32, ptr %16, align 4
  %24 = zext i32 %23 to i64
  %25 = getelementptr [5 x i32], ptr %22, i64 0, i64 %24
  store i32 %20, ptr %25, align 4
  %26 = load ptr, ptr %11, align 8
  %27 = load i32, ptr @hf_request_in_frame, align 4
  %28 = load ptr, ptr %9, align 8
  %29 = load ptr, ptr %14, align 8
  %30 = getelementptr inbounds nuw %struct._control_proc_info_t, ptr %29, i32 0, i32 0
  %31 = getelementptr [5 x i32], ptr %30, i64 0, i64 0
  %32 = load i32, ptr %31, align 4
  %33 = call ptr @proto_tree_add_uint(ptr noundef %26, i32 noundef %27, ptr noundef %28, i32 noundef 0, i32 noundef 0, i32 noundef %32)
  store ptr %33, ptr %17, align 8
  %34 = load ptr, ptr %17, align 8
  call void @proto_item_set_generated(ptr noundef %34)
  %35 = load ptr, ptr %15, align 8
  %36 = icmp ne ptr %35, null
  br i1 %36, label %37, label %69

37:                                               ; preds = %8
  %38 = load ptr, ptr %10, align 8
  %39 = getelementptr inbounds nuw %struct._packet_info, ptr %38, i32 0, i32 3
  %40 = load i32, ptr %39, align 4
  %41 = load ptr, ptr %15, align 8
  %42 = call zeroext i1 @control_proc_is_complete(i32 noundef %40, ptr noundef %41)
  br i1 %42, label %69, label %43

43:                                               ; preds = %37
  %44 = load ptr, ptr %14, align 8
  %45 = getelementptr inbounds nuw %struct._control_proc_info_t, ptr %44, i32 0, i32 1
  %46 = load i8, ptr %45, align 4
  %47 = call zeroext i1 @control_proc_contains_instant(i8 noundef zeroext %46)
  br i1 %47, label %48, label %69

48:                                               ; preds = %43
  %49 = load ptr, ptr %15, align 8
  %50 = getelementptr inbounds nuw %struct._control_proc_info_t, ptr %49, i32 0, i32 1
  %51 = load i8, ptr %50, align 4
  %52 = call zeroext i1 @control_proc_contains_instant(i8 noundef zeroext %51)
  br i1 %52, label %53, label %69

53:                                               ; preds = %48
  %54 = load i32, ptr %13, align 4
  %55 = icmp eq i32 %54, 1
  br i1 %55, label %56, label %68

56:                                               ; preds = %53
  %57 = load i8, ptr %12, align 1
  %58 = zext i8 %57 to i32
  %59 = icmp ne i32 %58, 13
  br i1 %59, label %60, label %68

60:                                               ; preds = %56
  %61 = load i8, ptr %12, align 1
  %62 = zext i8 %61 to i32
  %63 = icmp ne i32 %62, 17
  br i1 %63, label %64, label %68

64:                                               ; preds = %60
  %65 = load ptr, ptr %10, align 8
  %66 = load ptr, ptr %17, align 8
  %67 = call ptr @expert_add_info(ptr noundef %65, ptr noundef %66, ptr noundef @ei_control_proc_invalid_conflict_resolution)
  br label %68

68:                                               ; preds = %64, %60, %56, %53
  br label %69

69:                                               ; preds = %68, %48, %43, %37, %8
  call void @llvm.lifetime.end.p0(i64 8, ptr %17) #13
  ret void
}

; Function Attrs: null_pointer_is_valid sspstrong uwtable
define internal void @control_proc_add_last_frame(ptr noundef %0, ptr noundef %1, ptr noundef %2, i8 noundef zeroext %3, i32 noundef %4, ptr noundef %5, ptr noundef %6, i32 noundef %7) #0 {
  %9 = alloca ptr, align 8
  %10 = alloca ptr, align 8
  %11 = alloca ptr, align 8
  %12 = alloca i8, align 1
  %13 = alloca i32, align 4
  %14 = alloca ptr, align 8
  %15 = alloca ptr, align 8
  %16 = alloca i32, align 4
  store ptr %0, ptr %9, align 8
  store ptr %1, ptr %10, align 8
  store ptr %2, ptr %11, align 8
  store i8 %3, ptr %12, align 1
  store i32 %4, ptr %13, align 4
  store ptr %5, ptr %14, align 8
  store ptr %6, ptr %15, align 8
  store i32 %7, ptr %16, align 4
  %17 = load ptr, ptr %9, align 8
  %18 = load ptr, ptr %10, align 8
  %19 = load ptr, ptr %11, align 8
  %20 = load i8, ptr %12, align 1
  %21 = load i32, ptr %13, align 4
  %22 = load ptr, ptr %14, align 8
  %23 = load ptr, ptr %15, align 8
  %24 = load i32, ptr %16, align 4
  call void @control_proc_add_frame(ptr noundef %17, ptr noundef %18, ptr noundef %19, i8 noundef zeroext %20, i32 noundef %21, ptr noundef %22, ptr noundef %23, i32 noundef %24)
  %25 = load ptr, ptr %10, align 8
  %26 = getelementptr inbounds nuw %struct._packet_info, ptr %25, i32 0, i32 3
  %27 = load i32, ptr %26, align 4
  %28 = load ptr, ptr %14, align 8
  %29 = getelementptr inbounds nuw %struct._control_proc_info_t, ptr %28, i32 0, i32 2
  store i32 %27, ptr %29, align 4
  ret void
}