; Function Attrs: null_pointer_is_valid sspstrong uwtable
define internal fastcc void @control_proc_add_last_frame(ptr noundef %0, ptr noundef %1, ptr noundef %2, i8 noundef zeroext %3, i32 noundef range(i32 0, 4) %4, ptr noundef captures(none) initializes((24, 28)) %5, ptr noundef readonly captures(address_is_null) %6, i32 noundef range(i32 1, 5) %7) unnamed_addr #0 {
  %9 = getelementptr inbounds nuw i8, ptr %1, i64 20
  %10 = load i32, ptr %9, align 4
  %11 = zext nneg i32 %7 to i64
  %12 = getelementptr [5 x i32], ptr %5, i64 0, i64 %11
  store i32 %10, ptr %12, align 4
  %13 = load i32, ptr @hf_request_in_frame, align 4
  %14 = load i32, ptr %5, align 4
  %15 = tail call ptr @proto_tree_add_uint(ptr noundef %2, i32 noundef %13, ptr noundef %0, i32 noundef 0, i32 noundef 0, i32 noundef %14)
  %.not.i.i = icmp eq ptr %15, null
  br i1 %.not.i.i, label %proto_item_set_generated.exit.i, label %16

16:                                               ; preds = %8
  %17 = getelementptr inbounds nuw i8, ptr %15, i64 40
  %18 = load ptr, ptr %17, align 8
  %.not5.i.i = icmp eq ptr %18, null
  br i1 %.not5.i.i, label %proto_item_set_generated.exit.i, label %19

19:                                               ; preds = %16
  %20 = getelementptr inbounds nuw i8, ptr %18, i64 28
  %21 = load i32, ptr %20, align 4
  %22 = or i32 %21, 2
  store i32 %22, ptr %20, align 4
  br label %proto_item_set_generated.exit.i

proto_item_set_generated.exit.i:                  ; preds = %19, %16, %8
  %.not.i = icmp eq ptr %6, null
  %.pre9 = load i32, ptr %9, align 4
  br i1 %.not.i, label %control_proc_add_frame.exit, label %23

23:                                               ; preds = %proto_item_set_generated.exit.i
  %24 = getelementptr i8, ptr %6, i64 24
  %.val.i = load i32, ptr %24, align 4
  %.not.i21.i = icmp ne i32 %.val.i, 0
  %25 = icmp ugt i32 %.pre9, %.val.i
  %or.cond.i.i = and i1 %.not.i21.i, %25
  br i1 %or.cond.i.i, label %control_proc_add_frame.exit, label %26

26:                                               ; preds = %23
  %27 = getelementptr inbounds nuw i8, ptr %5, i64 20
  %28 = load i8, ptr %27, align 4
  switch i8 %28, label %control_proc_add_frame.exit [
    i8 0, label %29
    i8 1, label %29
    i8 15, label %29
    i8 22, label %29
  ]

29:                                               ; preds = %26, %26, %26, %26
  %30 = getelementptr inbounds nuw i8, ptr %6, i64 20
  %31 = load i8, ptr %30, align 4
  switch i8 %31, label %control_proc_add_frame.exit [
    i8 0, label %control_proc_contains_instant.exit23.i
    i8 1, label %control_proc_contains_instant.exit23.i
    i8 15, label %control_proc_contains_instant.exit23.i
    i8 22, label %control_proc_contains_instant.exit23.i
  ]

control_proc_contains_instant.exit23.i:           ; preds = %29, %29, %29, %29
  %32 = icmp eq i32 %4, 1
  br i1 %32, label %switch.early.test.i, label %control_proc_add_frame.exit

switch.early.test.i:                              ; preds = %control_proc_contains_instant.exit23.i
  switch i8 %3, label %33 [
    i8 17, label %control_proc_add_frame.exit
    i8 13, label %control_proc_add_frame.exit
  ]

33:                                               ; preds = %switch.early.test.i
  %34 = tail call ptr @expert_add_info(ptr noundef %1, ptr noundef %15, ptr noundef nonnull @ei_control_proc_invalid_conflict_resolution)
  %.pre = load i32, ptr %9, align 4
  br label %control_proc_add_frame.exit

control_proc_add_frame.exit:                      ; preds = %proto_item_set_generated.exit.i, %23, %26, %29, %control_proc_contains_instant.exit23.i, %switch.early.test.i, %switch.early.test.i, %33
  %35 = phi i32 [ %.pre9, %proto_item_set_generated.exit.i ], [ %.pre9, %23 ], [ %.pre9, %26 ], [ %.pre9, %29 ], [ %.pre9, %control_proc_contains_instant.exit23.i ], [ %.pre9, %switch.early.test.i ], [ %.pre9, %switch.early.test.i ], [ %.pre, %33 ]
  %36 = getelementptr inbounds nuw i8, ptr %5, i64 24
  store i32 %35, ptr %36, align 4
  ret void
}